; Function Attrs: nofree norecurse nosync nounwind memory(argmem: read) uwtable
define range(i32 0, -1) i32 @Cec3_ManSimHashKey(ptr noundef readonly captures(none) %0, i32 noundef %1, i32 noundef %2) local_unnamed_addr #9 {
  %4 = shl i32 %1, 1
  %5 = load i32, ptr %0, align 4, !tbaa !34
  %6 = and i32 %5, 1
  %.not = icmp eq i32 %6, 0
  %7 = icmp sgt i32 %1, 0
  br i1 %.not, label %.preheader, label %.preheader20

.preheader20:                                     ; preds = %3
  br i1 %7, label %.lr.ph.preheader, label %.loopexit

.lr.ph.preheader:                                 ; preds = %.preheader20
  %smax = tail call i32 @llvm.smax.i32(i32 %4, i32 1)
  %wide.trip.count = zext nneg i32 %smax to i64
  br label %.lr.ph

.preheader:                                       ; preds = %3
  br i1 %7, label %.lr.ph26.preheader, label %.loopexit

.lr.ph26.preheader:                               ; preds = %.preheader
  %smax34 = tail call i32 @llvm.smax.i32(i32 %4, i32 1)
  %wide.trip.count35 = zext nneg i32 %smax34 to i64
  br label %.lr.ph26

.lr.ph:                                           ; preds = %.lr.ph.preheader, %.lr.ph
  %indvars.iv = phi i64 [ 0, %.lr.ph.preheader ], [ %indvars.iv.next, %.lr.ph ]
  %.023 = phi i32 [ 0, %.lr.ph.preheader ], [ %15, %.lr.ph ]
  %8 = getelementptr inbounds nuw i32, ptr %0, i64 %indvars.iv
  %9 = load i32, ptr %8, align 4, !tbaa !34
  %10 = xor i32 %9, -1
  %11 = and i64 %indvars.iv, 15
  %12 = getelementptr inbounds nuw [16 x i32], ptr @Cec3_ManSimHashKey.s_Primes, i64 0, i64 %11
  %13 = load i32, ptr %12, align 4, !tbaa !34
  %14 = mul i32 %13, %10
  %15 = xor i32 %14, %.023
  %indvars.iv.next = add nuw nsw i64 %indvars.iv, 1
  %exitcond.not = icmp eq i64 %indvars.iv.next, %wide.trip.count
  br i1 %exitcond.not, label %.loopexit, label %.lr.ph, !llvm.loop !102

.lr.ph26:                                         ; preds = %.lr.ph26.preheader, %.lr.ph26
  %indvars.iv31 = phi i64 [ 0, %.lr.ph26.preheader ], [ %indvars.iv.next32, %.lr.ph26 ]
  %.225 = phi i32 [ 0, %.lr.ph26.preheader ], [ %22, %.lr.ph26 ]
  %16 = getelementptr inbounds nuw i32, ptr %0, i64 %indvars.iv31
  %17 = load i32, ptr %16, align 4, !tbaa !34
  %18 = and i64 %indvars.iv31, 15
  %19 = getelementptr inbounds nuw [16 x i32], ptr @Cec3_ManSimHashKey.s_Primes, i64 0, i64 %18
  %20 = load i32, ptr %19, align 4, !tbaa !34
  %21 = mul i32 %20, %17
  %22 = xor i32 %21, %.225
  %indvars.iv.next32 = add nuw nsw i64 %indvars.iv31, 1
  %exitcond36.not = icmp eq i64 %indvars.iv.next32, %wide.trip.count35
  br i1 %exitcond36.not, label %.loopexit, label %.lr.ph26, !llvm.loop !103

.loopexit:                                        ; preds = %.lr.ph, %.lr.ph26, %.preheader20, %.preheader
  %.1 = phi i32 [ 0, %.preheader ], [ 0, %.preheader20 ], [ %22, %.lr.ph26 ], [ %15, %.lr.ph ]
  %23 = urem i32 %.1, %2
  ret i32 %23
}